target datalayout = "e-m:e-p270:32:32-p271:32:32-p272:64:64-i64:64-i128:128-f80:128-n8:16:32:64-S128"
target triple = "x86_64-pc-linux-gnu"

%struct.FunctionCallInfoBaseData = type { ptr, ptr, ptr, i32, i8, i16, [0 x %struct.NullableDatum] }
%struct.NullableDatum = type { i64, i8 }
%struct.TSQueryData = type { i32, i32, [0 x i8] }
%struct.GinChkVal = type { ptr, ptr, ptr }

; Function Attrs: inlinehint nounwind uwtable
define internal i64 @GinTernaryValueGetDatum(i8 noundef signext %0) #3 {
  %2 = alloca i8, align 1
  store i8 %0, ptr %2, align 1
  %3 = load i8, ptr %2, align 1
  %4 = sext i8 %3 to i64
  ret i64 %4
}

; Function Attrs: inlinehint nounwind uwtable
define internal ptr @DatumGetTSQuery(i64 noundef %0) #3 {
  %2 = alloca i64, align 8
  store i64 %0, ptr %2, align 8
  %3 = load i64, ptr %2, align 8
  %4 = call ptr @DatumGetPointer(i64 noundef %3)
  ret ptr %4
}

; Function Attrs: inlinehint nounwind uwtable
define internal ptr @DatumGetPointer(i64 noundef %0) #3 {
  %2 = alloca i64, align 8
  store i64 %0, ptr %2, align 8
  %3 = load i64, ptr %2, align 8
  %4 = inttoptr i64 %3 to ptr
  ret ptr %4
}

; Function Attrs: nounwind uwtable
define dso_local i64 @gin_tsquery_triconsistent(ptr noundef %0) #0 {
  %2 = alloca ptr, align 8
  %3 = alloca ptr, align 8
  %4 = alloca ptr, align 8
  %5 = alloca ptr, align 8
  %6 = alloca i8, align 1
  %7 = alloca %struct.GinChkVal, align 8
  store ptr %0, ptr %2, align 8
  call void @llvm.lifetime.start.p0(i64 8, ptr %3) #5
  %8 = load ptr, ptr %2, align 8
  %9 = getelementptr inbounds nuw %struct.FunctionCallInfoBaseData, ptr %8, i32 0, i32 6
  %10 = getelementptr inbounds [0 x %struct.NullableDatum], ptr %9, i64 0, i64 0
  %11 = getelementptr inbounds nuw %struct.NullableDatum, ptr %10, i32 0, i32 0
  %12 = load i64, ptr %11, align 8
  %13 = call ptr @DatumGetPointer(i64 noundef %12)
  store ptr %13, ptr %3, align 8
  call void @llvm.lifetime.start.p0(i64 8, ptr %4) #5
  %14 = load ptr, ptr %2, align 8
  %15 = getelementptr inbounds nuw %struct.FunctionCallInfoBaseData, ptr %14, i32 0, i32 6
  %16 = getelementptr inbounds [0 x %struct.NullableDatum], ptr %15, i64 0, i64 2
  %17 = getelementptr inbounds nuw %struct.NullableDatum, ptr %16, i32 0, i32 0
  %18 = load i64, ptr %17, align 8
  %19 = call ptr @DatumGetTSQuery(i64 noundef %18)
  store ptr %19, ptr %4, align 8
  call void @llvm.lifetime.start.p0(i64 8, ptr %5) #5
  %20 = load ptr, ptr %2, align 8
  %21 = getelementptr inbounds nuw %struct.FunctionCallInfoBaseData, ptr %20, i32 0, i32 6
  %22 = getelementptr inbounds [0 x %struct.NullableDatum], ptr %21, i64 0, i64 4
  %23 = getelementptr inbounds nuw %struct.NullableDatum, ptr %22, i32 0, i32 0
  %24 = load i64, ptr %23, align 8
  %25 = call ptr @DatumGetPointer(i64 noundef %24)
  store ptr %25, ptr %5, align 8
  call void @llvm.lifetime.start.p0(i64 1, ptr %6) #5
  store i8 0, ptr %6, align 1
  %26 = load ptr, ptr %4, align 8
  %27 = getelementptr inbounds nuw %struct.TSQueryData, ptr %26, i32 0, i32 1
  %28 = load i32, ptr %27, align 4
  %29 = icmp sgt i32 %28, 0
  br i1 %29, label %30, label %44

30:                                               ; preds = %1
  call void @llvm.lifetime.start.p0(i64 24, ptr %7) #5
  %31 = load ptr, ptr %4, align 8
  %32 = getelementptr inbounds nuw i8, ptr %31, i64 8
  %33 = getelementptr inbounds nuw %struct.GinChkVal, ptr %7, i32 0, i32 0
  store ptr %32, ptr %33, align 8
  %34 = load ptr, ptr %3, align 8
  %35 = getelementptr inbounds nuw %struct.GinChkVal, ptr %7, i32 0, i32 1
  store ptr %34, ptr %35, align 8
  %36 = load ptr, ptr %5, align 8
  %37 = getelementptr inbounds ptr, ptr %36, i64 0
  %38 = load ptr, ptr %37, align 8
  %39 = getelementptr inbounds nuw %struct.GinChkVal, ptr %7, i32 0, i32 2
  store ptr %38, ptr %39, align 8
  %40 = load ptr, ptr %4, align 8
  %41 = getelementptr inbounds nuw i8, ptr %40, i64 8
  %42 = call i32 @TS_execute_ternary(ptr noundef %41, ptr noundef %7, i32 noundef 2, ptr noundef @checkcondition_gin)
  %43 = trunc i32 %42 to i8
  store i8 %43, ptr %6, align 1
  call void @llvm.lifetime.end.p0(i64 24, ptr %7) #5
  br label %44

44:                                               ; preds = %30, %1
  %45 = load i8, ptr %6, align 1
  %46 = call i64 @GinTernaryValueGetDatum(i8 noundef signext %45)
  call void @llvm.lifetime.end.p0(i64 1, ptr %6) #5
  call void @llvm.lifetime.end.p0(i64 8, ptr %5) #5
  call void @llvm.lifetime.end.p0(i64 8, ptr %4) #5
  call void @llvm.lifetime.end.p0(i64 8, ptr %3) #5
  ret i64 %46
}