; Function Attrs: nounwind uwtable
define dso_local range(i64 -128, 128) i64 @gin_tsquery_triconsistent(ptr noundef readonly captures(none) %0) local_unnamed_addr #0 {
  %2 = alloca %struct.GinChkVal, align 8
  %3 = getelementptr inbounds nuw i8, ptr %0, i64 64
  %4 = load i64, ptr %3, align 8
  %5 = inttoptr i64 %4 to ptr
  %6 = getelementptr inbounds nuw i8, ptr %5, i64 4
  %7 = load i32, ptr %6, align 4
  %8 = icmp sgt i32 %7, 0
  br i1 %8, label %9, label %23

9:                                                ; preds = %1
  %10 = getelementptr inbounds nuw i8, ptr %0, i64 96
  %11 = load i64, ptr %10, align 8
  %12 = inttoptr i64 %11 to ptr
  %13 = getelementptr inbounds nuw i8, ptr %0, i64 32
  %14 = load i64, ptr %13, align 8
  %15 = inttoptr i64 %14 to ptr
  call void @llvm.lifetime.start.p0(i64 24, ptr nonnull %2) #6
  %16 = getelementptr inbounds nuw i8, ptr %5, i64 8
  store ptr %16, ptr %2, align 8
  %17 = getelementptr inbounds nuw i8, ptr %2, i64 8
  store ptr %15, ptr %17, align 8
  %18 = load ptr, ptr %12, align 8
  %19 = getelementptr inbounds nuw i8, ptr %2, i64 16
  store ptr %18, ptr %19, align 8
  %20 = call i32 @TS_execute_ternary(ptr noundef nonnull %16, ptr noundef nonnull %2, i32 noundef 2, ptr noundef nonnull @checkcondition_gin) #6
  %21 = zext i32 %20 to i64
  call void @llvm.lifetime.end.p0(i64 24, ptr nonnull %2) #6
  %sext = shl i64 %21, 56
  %22 = ashr exact i64 %sext, 56
  br label %23

23:                                               ; preds = %9, %1
  %.0 = phi i64 [ %22, %9 ], [ 0, %1 ]
  ret i64 %.0
}